target datalayout = "e-m:e-p270:32:32-p271:32:32-p272:64:64-i64:64-i128:128-f80:128-n8:16:32:64-S128"
target triple = "x86_64-pc-linux-gnu"

%"class.std::vector.0" = type { %"struct.std::_Vector_base" }
%"struct.std::_Vector_base" = type { %"struct.std::_Vector_base<const FunctionInvocationUser *, std::allocator<const FunctionInvocationUser *>>::_Vector_impl" }
%"struct.std::_Vector_base<const FunctionInvocationUser *, std::allocator<const FunctionInvocationUser *>>::_Vector_impl" = type { %"struct.std::_Vector_base<const FunctionInvocationUser *, std::allocator<const FunctionInvocationUser *>>::_Vector_impl_data" }
%"struct.std::_Vector_base<const FunctionInvocationUser *, std::allocator<const FunctionInvocationUser *>>::_Vector_impl_data" = type { ptr, ptr, ptr }
%"class.std::vector.4" = type { %"struct.std::_Vector_base.5" }
%"struct.std::_Vector_base.5" = type { %"struct.std::_Vector_base<const Fact *, std::allocator<const Fact *>>::_Vector_impl" }
%"struct.std::_Vector_base<const Fact *, std::allocator<const Fact *>>::_Vector_impl" = type { %"struct.std::_Vector_base<const Fact *, std::allocator<const Fact *>>::_Vector_impl_data" }
%"struct.std::_Vector_base<const Fact *, std::allocator<const Fact *>>::_Vector_impl_data" = type { ptr, ptr, ptr }
%class.Fact = type <{ ptr, i32, [4 x i8] }>

@_ZL11invocations = internal global %"class.std::vector.0" zeroinitializer, align 8
@_ZL12return_facts = internal global %"class.std::vector.4" zeroinitializer, align 8

; Function Attrs: mustprogress nounwind uwtable
define linkonce_odr dso_local noundef nonnull align 8 dereferenceable(8) ptr @_ZNSt6vectorIPK4FactSaIS2_EEixEm(ptr noundef nonnull align 8 dereferenceable(24) %0, i64 noundef %1) #4 comdat align 2 {
  %3 = alloca ptr, align 8
  %4 = alloca i64, align 8
  store ptr %0, ptr %3, align 8, !tbaa !17
  store i64 %1, ptr %4, align 8, !tbaa !29
  %5 = load ptr, ptr %3, align 8
  %6 = getelementptr inbounds nuw %"struct.std::_Vector_base.5", ptr %5, i32 0, i32 0
  %7 = getelementptr inbounds nuw %"struct.std::_Vector_base<const Fact *, std::allocator<const Fact *>>::_Vector_impl_data", ptr %6, i32 0, i32 0
  %8 = load ptr, ptr %7, align 8, !tbaa !19
  %9 = load i64, ptr %4, align 8, !tbaa !29
  %10 = getelementptr inbounds nuw ptr, ptr %8, i64 %9
  ret ptr %10
}

; Function Attrs: mustprogress nounwind uwtable
define linkonce_odr dso_local noundef nonnull align 8 dereferenceable(8) ptr @_ZNSt6vectorIPK22FunctionInvocationUserSaIS2_EEixEm(ptr noundef nonnull align 8 dereferenceable(24) %0, i64 noundef %1) #4 comdat align 2 {
  %3 = alloca ptr, align 8
  %4 = alloca i64, align 8
  store ptr %0, ptr %3, align 8, !tbaa !11
  store i64 %1, ptr %4, align 8, !tbaa !29
  %5 = load ptr, ptr %3, align 8
  %6 = getelementptr inbounds nuw %"struct.std::_Vector_base", ptr %5, i32 0, i32 0
  %7 = getelementptr inbounds nuw %"struct.std::_Vector_base<const FunctionInvocationUser *, std::allocator<const FunctionInvocationUser *>>::_Vector_impl_data", ptr %6, i32 0, i32 0
  %8 = load ptr, ptr %7, align 8, !tbaa !13
  %9 = load i64, ptr %4, align 8, !tbaa !29
  %10 = getelementptr inbounds nuw ptr, ptr %8, i64 %9
  ret ptr %10
}

; Function Attrs: mustprogress nounwind uwtable
define linkonce_odr dso_local noundef i64 @_ZNKSt6vectorIPK4FactSaIS2_EE4sizeEv(ptr noundef nonnull align 8 dereferenceable(24) %0) #4 comdat align 2 {
  %2 = alloca ptr, align 8
  store ptr %0, ptr %2, align 8, !tbaa !17
  %3 = load ptr, ptr %2, align 8
  %4 = getelementptr inbounds nuw %"struct.std::_Vector_base.5", ptr %3, i32 0, i32 0
  %5 = getelementptr inbounds nuw %"struct.std::_Vector_base<const Fact *, std::allocator<const Fact *>>::_Vector_impl_data", ptr %4, i32 0, i32 1
  %6 = load ptr, ptr %5, align 8, !tbaa !22
  %7 = getelementptr inbounds nuw %"struct.std::_Vector_base.5", ptr %3, i32 0, i32 0
  %8 = getelementptr inbounds nuw %"struct.std::_Vector_base<const Fact *, std::allocator<const Fact *>>::_Vector_impl_data", ptr %7, i32 0, i32 0
  %9 = load ptr, ptr %8, align 8, !tbaa !19
  %10 = ptrtoint ptr %6 to i64
  %11 = ptrtoint ptr %9 to i64
  %12 = sub i64 %10, %11
  %13 = sdiv exact i64 %12, 8
  ret i64 %13
}

; Function Attrs: mustprogress uwtable
define dso_local noundef ptr @_Z30get_return_fact_for_invocationPK22FunctionInvocationUserPK8Variable13eFactCategory(ptr noundef %0, ptr noundef %1, i32 noundef %2) #5 {
  %4 = alloca ptr, align 8
  %5 = alloca ptr, align 8
  %6 = alloca ptr, align 8
  %7 = alloca i32, align 4
  %8 = alloca i64, align 8
  %9 = alloca i32, align 4
  %10 = alloca ptr, align 8
  store ptr %0, ptr %5, align 8, !tbaa !23
  store ptr %1, ptr %6, align 8, !tbaa !25
  store i32 %2, ptr %7, align 4, !tbaa !27
  call void @llvm.lifetime.start.p0(i64 8, ptr %8) #3
  store i64 0, ptr %8, align 8, !tbaa !29
  br label %11

11:                                               ; preds = %46, %3
  %12 = load i64, ptr %8, align 8, !tbaa !29
  %13 = call noundef i64 @_ZNKSt6vectorIPK4FactSaIS2_EE4sizeEv(ptr noundef nonnull align 8 dereferenceable(24) @_ZL12return_facts) #3
  %14 = icmp ult i64 %12, %13
  br i1 %14, label %16, label %15

15:                                               ; preds = %11
  store i32 2, ptr %9, align 4
  br label %49

16:                                               ; preds = %11
  %17 = load i64, ptr %8, align 8, !tbaa !29
  %18 = call noundef nonnull align 8 dereferenceable(8) ptr @_ZNSt6vectorIPK22FunctionInvocationUserSaIS2_EEixEm(ptr noundef nonnull align 8 dereferenceable(24) @_ZL11invocations, i64 noundef %17) #3
  %19 = load ptr, ptr %18, align 8, !tbaa !23
  %20 = load ptr, ptr %5, align 8, !tbaa !23
  %21 = icmp eq ptr %19, %20
  br i1 %21, label %22, label %45

22:                                               ; preds = %16
  call void @llvm.lifetime.start.p0(i64 8, ptr %10) #3
  %23 = load i64, ptr %8, align 8, !tbaa !29
  %24 = call noundef nonnull align 8 dereferenceable(8) ptr @_ZNSt6vectorIPK4FactSaIS2_EEixEm(ptr noundef nonnull align 8 dereferenceable(24) @_ZL12return_facts, i64 noundef %23) #3
  %25 = load ptr, ptr %24, align 8, !tbaa !31
  store ptr %25, ptr %10, align 8, !tbaa !31
  %26 = load ptr, ptr %10, align 8, !tbaa !31
  %27 = getelementptr inbounds nuw %class.Fact, ptr %26, i32 0, i32 1
  %28 = load i32, ptr %27, align 8, !tbaa !33
  %29 = load i32, ptr %7, align 4, !tbaa !27
  %30 = icmp eq i32 %28, %29
  br i1 %30, label %31, label %41

31:                                               ; preds = %22
  %32 = load ptr, ptr %10, align 8, !tbaa !31
  %33 = load ptr, ptr %32, align 8, !tbaa !35
  %34 = getelementptr inbounds ptr, ptr %33, i64 15
  %35 = load ptr, ptr %34, align 8
  %36 = call noundef ptr %35(ptr noundef nonnull align 8 dereferenceable(12) %32)
  %37 = load ptr, ptr %6, align 8, !tbaa !25
  %38 = icmp eq ptr %36, %37
  br i1 %38, label %39, label %41

39:                                               ; preds = %31
  %40 = load ptr, ptr %10, align 8, !tbaa !31
  store ptr %40, ptr %4, align 8
  store i32 1, ptr %9, align 4
  br label %42

41:                                               ; preds = %31, %22
  store i32 0, ptr %9, align 4
  br label %42

42:                                               ; preds = %41, %39
  call void @llvm.lifetime.end.p0(i64 8, ptr %10) #3
  %43 = load i32, ptr %9, align 4
  switch i32 %43, label %49 [
    i32 0, label %44
  ]

44:                                               ; preds = %42
  br label %45

45:                                               ; preds = %44, %16
  br label %46

46:                                               ; preds = %45
  %47 = load i64, ptr %8, align 8, !tbaa !29
  %48 = add i64 %47, 1
  store i64 %48, ptr %8, align 8, !tbaa !29
  br label %11, !llvm.loop !37

49:                                               ; preds = %42, %15
  call void @llvm.lifetime.end.p0(i64 8, ptr %8) #3
  %50 = load i32, ptr %9, align 4
  switch i32 %50, label %54 [
    i32 2, label %51
    i32 1, label %52
  ]

51:                                               ; preds = %49
  store ptr null, ptr %4, align 8
  br label %52

52:                                               ; preds = %51, %49
  %53 = load ptr, ptr %4, align 8
  ret ptr %53

54:                                               ; preds = %49
  unreachable
}